; Function Attrs: nounwind uwtable
define dso_local void @core_array_and_not(ptr noundef %0, ptr noundef %1) local_unnamed_addr #0 {
  %3 = load i32, ptr @node_record_count, align 4
  %4 = icmp sgt i32 %3, 0
  br i1 %4, label %.lr.ph, label %._crit_edge

.lr.ph:                                           ; preds = %2, %25
  %5 = phi i32 [ %26, %25 ], [ %3, %2 ]
  %indvars.iv = phi i64 [ %indvars.iv.next, %25 ], [ 0, %2 ]
  %6 = getelementptr inbounds nuw ptr, ptr %0, i64 %indvars.iv
  %7 = load ptr, ptr %6, align 8
  %.not = icmp eq ptr %7, null
  br i1 %.not, label %25, label %8

8:                                                ; preds = %.lr.ph
  %9 = getelementptr inbounds nuw ptr, ptr %1, i64 %indvars.iv
  %10 = load ptr, ptr %9, align 8
  %.not26 = icmp eq ptr %10, null
  br i1 %.not26, label %25, label %11

11:                                               ; preds = %8
  %12 = tail call i64 @bit_size(ptr noundef nonnull %7) #3
  %13 = trunc i64 %12 to i32
  %14 = load ptr, ptr %9, align 8
  %15 = tail call i64 @bit_size(ptr noundef %14) #3
  %16 = trunc i64 %15 to i32
  %17 = icmp sgt i32 %13, %16
  br i1 %17, label %.sink.split, label %18

18:                                               ; preds = %11
  %19 = icmp slt i32 %13, %16
  br i1 %19, label %.sink.split, label %22

.sink.split:                                      ; preds = %18, %11
  %.sink31 = phi i64 [ %12, %11 ], [ %15, %18 ]
  %.sink = phi ptr [ %9, %11 ], [ %6, %18 ]
  %sext = shl i64 %.sink31, 32
  %20 = ashr exact i64 %sext, 32
  %21 = tail call ptr @slurm_bit_realloc(ptr noundef nonnull %.sink, i64 noundef %20) #3
  br label %22

22:                                               ; preds = %.sink.split, %18
  %23 = load ptr, ptr %6, align 8
  %24 = load ptr, ptr %9, align 8
  tail call void @bit_and_not(ptr noundef %23, ptr noundef %24) #3
  %.pre = load i32, ptr @node_record_count, align 4
  br label %25

25:                                               ; preds = %.lr.ph, %8, %22
  %26 = phi i32 [ %5, %.lr.ph ], [ %5, %8 ], [ %.pre, %22 ]
  %indvars.iv.next = add nuw nsw i64 %indvars.iv, 1
  %27 = sext i32 %26 to i64
  %28 = icmp slt i64 %indvars.iv.next, %27
  br i1 %28, label %.lr.ph, label %._crit_edge, !llvm.loop !15

._crit_edge:                                      ; preds = %25, %2
  ret void
}